; Function Attrs: mustprogress uwtable
define dso_local noundef zeroext i1 @_ZN4Json18StyledStreamWriter16isMultilineArrayERKNS_5ValueE(ptr noundef nonnull align 8 dereferenceable(105) %0, ptr noundef nonnull align 8 dereferenceable(40) %1) local_unnamed_addr #0 align 2 personality ptr @__gxx_personality_v0 {
  %3 = tail call noundef i32 @_ZNK4Json5Value4sizeEv(ptr noundef nonnull align 8 dereferenceable(40) %1)
  %4 = mul i32 %3, 3
  %5 = getelementptr inbounds i8, ptr %0, i64 64
  %6 = load i32, ptr %5, align 8
  %7 = icmp uge i32 %4, %6
  %8 = load ptr, ptr %0, align 8
  %9 = getelementptr inbounds i8, ptr %0, i64 8
  %10 = load ptr, ptr %9, align 8
  %.not.i.i = icmp eq ptr %10, %8
  br i1 %.not.i.i, label %_ZNSt6vectorINSt7__cxx1112basic_stringIcSt11char_traitsIcESaIcEEESaIS5_EE5clearEv.exit, label %.lr.ph.i.i.i.i.i

.lr.ph.i.i.i.i.i:                                 ; preds = %2, %.lr.ph.i.i.i.i.i
  %.05.i.i.i.i.i = phi ptr [ %11, %.lr.ph.i.i.i.i.i ], [ %8, %2 ]
  tail call void @_ZNSt7__cxx1112basic_stringIcSt11char_traitsIcESaIcEED1Ev(ptr noundef nonnull align 8 dereferenceable(32) %.05.i.i.i.i.i) #19
  %11 = getelementptr inbounds i8, ptr %.05.i.i.i.i.i, i64 32
  %.not.i.i.i.i.i = icmp eq ptr %11, %10
  br i1 %.not.i.i.i.i.i, label %_ZSt8_DestroyIPNSt7__cxx1112basic_stringIcSt11char_traitsIcESaIcEEES5_EvT_S7_RSaIT0_E.exit.i.i, label %.lr.ph.i.i.i.i.i, !llvm.loop !13

_ZSt8_DestroyIPNSt7__cxx1112basic_stringIcSt11char_traitsIcESaIcEEES5_EvT_S7_RSaIT0_E.exit.i.i: ; preds = %.lr.ph.i.i.i.i.i
  store ptr %8, ptr %9, align 8
  br label %_ZNSt6vectorINSt7__cxx1112basic_stringIcSt11char_traitsIcESaIcEEESaIS5_EE5clearEv.exit

_ZNSt6vectorINSt7__cxx1112basic_stringIcSt11char_traitsIcESaIcEEESaIS5_EE5clearEv.exit: ; preds = %2, %_ZSt8_DestroyIPNSt7__cxx1112basic_stringIcSt11char_traitsIcESaIcEEES5_EvT_S7_RSaIT0_E.exit.i.i
  %12 = icmp eq i32 %3, 0
  %.not2930 = select i1 %12, i1 true, i1 %7
  br i1 %.not2930, label %._crit_edge, label %.lr.ph

.lr.ph:                                           ; preds = %_ZNSt6vectorINSt7__cxx1112basic_stringIcSt11char_traitsIcESaIcEEESaIS5_EE5clearEv.exit, %20
  %.02831 = phi i32 [ %22, %20 ], [ 0, %_ZNSt6vectorINSt7__cxx1112basic_stringIcSt11char_traitsIcESaIcEEESaIS5_EE5clearEv.exit ]
  %13 = tail call noundef nonnull align 8 dereferenceable(40) ptr @_ZNK4Json5ValueixEj(ptr noundef nonnull align 8 dereferenceable(40) %1, i32 noundef %.02831)
  %14 = tail call noundef zeroext i1 @_ZNK4Json5Value7isArrayEv(ptr noundef nonnull align 8 dereferenceable(40) %13)
  br i1 %14, label %17, label %15

15:                                               ; preds = %.lr.ph
  %16 = tail call noundef zeroext i1 @_ZNK4Json5Value8isObjectEv(ptr noundef nonnull align 8 dereferenceable(40) %13)
  br i1 %16, label %17, label %20

17:                                               ; preds = %15, %.lr.ph
  %18 = tail call noundef zeroext i1 @_ZNK4Json5Value5emptyEv(ptr noundef nonnull align 8 dereferenceable(40) %13)
  %19 = xor i1 %18, true
  br label %20

20:                                               ; preds = %17, %15
  %21 = phi i1 [ false, %15 ], [ %19, %17 ]
  %22 = add nuw i32 %.02831, 1
  %23 = icmp uge i32 %22, %3
  %.not29 = or i1 %23, %21
  br i1 %.not29, label %._crit_edge, label %.lr.ph, !llvm.loop !31

._crit_edge:                                      ; preds = %20, %_ZNSt6vectorINSt7__cxx1112basic_stringIcSt11char_traitsIcESaIcEEESaIS5_EE5clearEv.exit
  %.027.in.lcssa = phi i1 [ %7, %_ZNSt6vectorINSt7__cxx1112basic_stringIcSt11char_traitsIcESaIcEEESaIS5_EE5clearEv.exit ], [ %21, %20 ]
  br i1 %.027.in.lcssa, label %52, label %24

24:                                               ; preds = %._crit_edge
  %25 = zext i32 %3 to i64
  tail call void @_ZNSt6vectorINSt7__cxx1112basic_stringIcSt11char_traitsIcESaIcEEESaIS5_EE7reserveEm(ptr noundef nonnull align 8 dereferenceable(24) %0, i64 noundef %25)
  %26 = getelementptr inbounds i8, ptr %0, i64 104
  %27 = load i8, ptr %26, align 8
  %28 = or i8 %27, 1
  store i8 %28, ptr %26, align 8
  %29 = shl i32 %3, 1
  %30 = add i32 %29, 2
  br i1 %12, label %._crit_edge37, label %.lr.ph36

.lr.ph36:                                         ; preds = %24, %37
  %indvars.iv = phi i64 [ %indvars.iv.next, %37 ], [ 0, %24 ]
  %.02633 = phi i32 [ %44, %37 ], [ %30, %24 ]
  %.132 = phi i8 [ %38, %37 ], [ 0, %24 ]
  %31 = trunc i64 %indvars.iv to i32
  %32 = tail call noundef nonnull align 8 dereferenceable(40) ptr @_ZNK4Json5ValueixEj(ptr noundef nonnull align 8 dereferenceable(40) %1, i32 noundef %31)
  %33 = tail call noundef zeroext i1 @_ZNK4Json5Value10hasCommentENS_16CommentPlacementE(ptr noundef nonnull align 8 dereferenceable(40) %32, i32 noundef 0)
  br i1 %33, label %_ZN4Json18StyledStreamWriter18hasCommentForValueERKNS_5ValueE.exit.thread, label %34

34:                                               ; preds = %.lr.ph36
  %35 = tail call noundef zeroext i1 @_ZNK4Json5Value10hasCommentENS_16CommentPlacementE(ptr noundef nonnull align 8 dereferenceable(40) %32, i32 noundef 1)
  br i1 %35, label %_ZN4Json18StyledStreamWriter18hasCommentForValueERKNS_5ValueE.exit.thread, label %_ZN4Json18StyledStreamWriter18hasCommentForValueERKNS_5ValueE.exit

_ZN4Json18StyledStreamWriter18hasCommentForValueERKNS_5ValueE.exit: ; preds = %34
  %36 = tail call noundef zeroext i1 @_ZNK4Json5Value10hasCommentENS_16CommentPlacementE(ptr noundef nonnull align 8 dereferenceable(40) %32, i32 noundef 2)
  br i1 %36, label %_ZN4Json18StyledStreamWriter18hasCommentForValueERKNS_5ValueE.exit.thread, label %37

_ZN4Json18StyledStreamWriter18hasCommentForValueERKNS_5ValueE.exit.thread: ; preds = %.lr.ph36, %34, %_ZN4Json18StyledStreamWriter18hasCommentForValueERKNS_5ValueE.exit
  br label %37

37:                                               ; preds = %_ZN4Json18StyledStreamWriter18hasCommentForValueERKNS_5ValueE.exit, %_ZN4Json18StyledStreamWriter18hasCommentForValueERKNS_5ValueE.exit.thread
  %38 = phi i8 [ 1, %_ZN4Json18StyledStreamWriter18hasCommentForValueERKNS_5ValueE.exit.thread ], [ %.132, %_ZN4Json18StyledStreamWriter18hasCommentForValueERKNS_5ValueE.exit ]
  %39 = tail call noundef nonnull align 8 dereferenceable(40) ptr @_ZNK4Json5ValueixEj(ptr noundef nonnull align 8 dereferenceable(40) %1, i32 noundef %31)
  tail call void @_ZN4Json18StyledStreamWriter10writeValueERKNS_5ValueE(ptr noundef nonnull align 8 dereferenceable(105) %0, ptr noundef nonnull align 8 dereferenceable(40) %39)
  %40 = load ptr, ptr %0, align 8
  %41 = getelementptr inbounds %"class.std::__cxx11::basic_string", ptr %40, i64 %indvars.iv
  %42 = tail call noundef i64 @_ZNKSt7__cxx1112basic_stringIcSt11char_traitsIcESaIcEE6lengthEv(ptr noundef nonnull align 8 dereferenceable(32) %41) #19
  %43 = trunc i64 %42 to i32
  %44 = add i32 %.02633, %43
  %indvars.iv.next = add nuw nsw i64 %indvars.iv, 1
  %exitcond.not = icmp eq i64 %indvars.iv.next, %25
  br i1 %exitcond.not, label %._crit_edge37.loopexit, label %.lr.ph36, !llvm.loop !32

._crit_edge37.loopexit:                           ; preds = %37
  %.pre = load i8, ptr %26, align 8
  %45 = and i8 %38, 1
  %46 = icmp ne i8 %45, 0
  br label %._crit_edge37

._crit_edge37:                                    ; preds = %._crit_edge37.loopexit, %24
  %47 = phi i8 [ %28, %24 ], [ %.pre, %._crit_edge37.loopexit ]
  %.1.lcssa = phi i1 [ false, %24 ], [ %46, %._crit_edge37.loopexit ]
  %.026.lcssa = phi i32 [ %30, %24 ], [ %44, %._crit_edge37.loopexit ]
  %48 = and i8 %47, -2
  store i8 %48, ptr %26, align 8
  %49 = load i32, ptr %5, align 8
  %50 = icmp uge i32 %.026.lcssa, %49
  %51 = select i1 %.1.lcssa, i1 true, i1 %50
  br label %52

52:                                               ; preds = %._crit_edge37, %._crit_edge
  %.3 = phi i1 [ true, %._crit_edge ], [ %51, %._crit_edge37 ]
  ret i1 %.3
}